	.file	"init.c"
	.stabs	"kern/init.c",100,0,2,.Ltext0
	.text
.Ltext0:
	.stabs	"gcc2_compiled.",60,0,0,0
	.stabs	"int:t(0,1)=r(0,1);-2147483648;2147483647;",128,0,0,0
	.stabs	"char:t(0,2)=r(0,2);0;127;",128,0,0,0
	.stabs	"long int:t(0,3)=r(0,3);-0;4294967295;",128,0,0,0
	.stabs	"unsigned int:t(0,4)=r(0,4);0;4294967295;",128,0,0,0
	.stabs	"long unsigned int:t(0,5)=r(0,5);0;-1;",128,0,0,0
	.stabs	"__int128:t(0,6)=r(0,6);0;-1;",128,0,0,0
	.stabs	"__int128 unsigned:t(0,7)=r(0,7);0;-1;",128,0,0,0
	.stabs	"long long int:t(0,8)=r(0,8);-0;4294967295;",128,0,0,0
	.stabs	"long long unsigned int:t(0,9)=r(0,9);0;-1;",128,0,0,0
	.stabs	"short int:t(0,10)=r(0,10);-32768;32767;",128,0,0,0
	.stabs	"short unsigned int:t(0,11)=r(0,11);0;65535;",128,0,0,0
	.stabs	"signed char:t(0,12)=r(0,12);-128;127;",128,0,0,0
	.stabs	"unsigned char:t(0,13)=r(0,13);0;255;",128,0,0,0
	.stabs	"float:t(0,14)=r(0,1);4;0;",128,0,0,0
	.stabs	"double:t(0,15)=r(0,1);8;0;",128,0,0,0
	.stabs	"long double:t(0,16)=r(0,1);16;0;",128,0,0,0
	.stabs	"_Decimal32:t(0,17)=r(0,1);4;0;",128,0,0,0
	.stabs	"_Decimal64:t(0,18)=r(0,1);8;0;",128,0,0,0
	.stabs	"_Decimal128:t(0,19)=r(0,1);16;0;",128,0,0,0
	.stabs	"void:t(0,20)=(0,20)",128,0,0,0
	.stabs	"./inc/stdio.h",130,0,0,0
	.stabs	"./inc/stdarg.h",130,0,0,0
	.stabs	"va_list:t(2,1)=(2,2)=ar(2,3)=r(2,3);0;-1;;0;0;(2,4)=xs__va_list_tag:",128,0,0,0
	.stabn	162,0,0,0
	.stabn	162,0,0,0
	.stabs	"./inc/string.h",130,0,0,0
	.stabs	"./inc/types.h",130,0,0,0
	.stabs	"bool:t(4,1)=(4,2)=eFalse:0,True:1,;",128,0,0,0
	.stabs	" :T(4,3)=efalse:0,true:1,;",128,0,0,0
	.stabs	"int8_t:t(4,4)=(0,12)",128,0,0,0
	.stabs	"uint8_t:t(4,5)=(0,13)",128,0,0,0
	.stabs	"int16_t:t(4,6)=(0,10)",128,0,0,0
	.stabs	"uint16_t:t(4,7)=(0,11)",128,0,0,0
	.stabs	"int32_t:t(4,8)=(0,1)",128,0,0,0
	.stabs	"uint32_t:t(4,9)=(0,4)",128,0,0,0
	.stabs	"int64_t:t(4,10)=(0,8)",128,0,0,0
	.stabs	"uint64_t:t(4,11)=(0,9)",128,0,0,0
	.stabs	"intptr_t:t(4,12)=(4,8)",128,0,0,0
	.stabs	"uintptr_t:t(4,13)=(4,9)",128,0,0,0
	.stabs	"physaddr_t:t(4,14)=(4,9)",128,0,0,0
	.stabs	"ppn_t:t(4,15)=(4,9)",128,0,0,0
	.stabs	"size_t:t(4,16)=(4,9)",128,0,0,0
	.stabs	"ssize_t:t(4,17)=(4,8)",128,0,0,0
	.stabs	"off_t:t(4,18)=(4,8)",128,0,0,0
	.stabn	162,0,0,0
	.stabn	162,0,0,0
	.stabs	"./kern/pmap.h",130,0,0,0
	.stabs	"./inc/memlayout.h",130,0,0,0
	.stabs	"./inc/mmu.h",130,0,0,0
	.stabs	"Segdesc:T(7,1)=s8sd_lim_15_0:(0,4),0,16;sd_base_15_0:(0,4),16,16;sd_base_23_16:(0,4),32,8;sd_type:(0,4),40,4;sd_s:(0,4),44,1;sd_dpl:(0,4),45,2;sd_p:(0,4),47,1;sd_lim_19_16:(0,4),48,4;sd_avl:(0,4),52,1;sd_rsv1:(0,4),53,1;sd_db:(0,4),54,1;sd_g:(0,4),55,1;sd_base_31_24:(0,4),56,8;;",128,0,0,0
	.stabs	"Taskstate:T(7,2)=s104ts_link:(4,9),0,32;ts_esp0:(4,13),32,32;ts_ss0:(4,7),64,16;ts_padding1:(4,7),80,16;ts_esp1:(4,13),96,32;ts_ss1:(4,7),128,16;ts_padding2:(4,7),144,16;ts_esp2:(4,13),160,32;ts_ss2:(4,7),192,16;ts_padding3:(4,7),208,16;ts_cr3:(4,14),224,32;ts_eip:(4,13),256,32;ts_eflags:(4,9),288,32;ts_eax:(4,9),320,32;ts_ecx:(4,9),352,32;ts_edx:(4,9),384,32;ts_ebx:(4,9),416,32;ts_esp:(4,13),448,32;ts_ebp:(4,13),480,32;ts_esi:(4,9),512,32;ts_edi:(4,9),544,32;ts_es:(4,7),576,16;ts_padding4:(4,7),592,16;ts_cs:(4,7),608,16;ts_padding5:(4,7),624,16;ts_ss:(4,7),640,16;ts_padding6:(4,7),656,16;ts_ds:(4,7),672,16;ts_padding7:(4,7),688,16;ts_fs:(4,7),704,16;ts_padding8:(4,7),720,16;ts_gs:(4,7),736,16;ts_padding9:(4,7),752,16;ts_ldt:(4,7),768,16;ts_padding10:(4,7),784,16;ts_t:(4,7),800,16;ts_iomb:(4,7),816,16;;",128,0,0,0
	.stabs	"Gatedesc:T(7,3)=s8gd_off_15_0:(0,4),0,16;gd_sel:(0,4),16,16;gd_args:(0,4),32,5;gd_rsv1:(0,4),37,3;gd_type:(0,4),40,4;gd_s:(0,4),44,1;gd_dpl:(0,4),45,2;gd_p:(0,4),47,1;gd_off_31_16:(0,4),48,16;;",128,0,0,0
	.stabs	"Pseudodesc:T(7,4)=s6pd_lim:(4,7),0,16;pd_base:(4,9),16,32;;",128,0,0,0
	.stabn	162,0,0,0
	.stabs	"pte_t:t(6,1)=(4,9)",128,0,0,0
	.stabs	"pde_t:t(6,2)=(4,9)",128,0,0,0
	.stabs	"PageInfo:T(6,3)=s16pp_link:(6,4)=*(6,3),0,64;pp_ref:(4,7),64,16;;",128,0,0,0
	.stabn	162,0,0,0
	.stabs	" :T(5,1)=eALLOC_ZERO:1,;",128,0,0,0
	.stabn	162,0,0,0
	.stabs	"./kern/env.h",130,0,0,0
	.stabs	"./inc/env.h",130,0,0,0
	.stabs	"./inc/trap.h",130,0,0,0
	.stabs	"PushRegs:T(10,1)=s32reg_edi:(4,9),0,32;reg_esi:(4,9),32,32;reg_ebp:(4,9),64,32;reg_oesp:(4,9),96,32;reg_ebx:(4,9),128,32;reg_edx:(4,9),160,32;reg_ecx:(4,9),192,32;reg_eax:(4,9),224,32;;",128,0,0,0
	.stabs	"Trapframe:T(10,2)=s68tf_regs:(10,1),0,256;tf_es:(4,7),256,16;tf_padding1:(4,7),272,16;tf_ds:(4,7),288,16;tf_padding2:(4,7),304,16;tf_trapno:(4,9),320,32;tf_err:(4,9),352,32;tf_eip:(4,13),384,32;tf_cs:(4,7),416,16;tf_padding3:(4,7),432,16;tf_eflags:(4,9),448,32;tf_esp:(4,13),480,32;tf_ss:(4,7),512,16;tf_padding4:(4,7),528,16;;",128,0,0,0
	.stabn	162,0,0,0
	.stabs	"envid_t:t(9,1)=(4,8)",128,0,0,0
	.stabs	" :T(9,2)=eENV_FREE:0,ENV_DYING:1,ENV_RUNNABLE:2,ENV_RUNNING:3,ENV_NOT_RUNNABLE:4,;",128,0,0,0
	.stabs	"EnvType:T(9,3)=eENV_TYPE_USER:0,;",128,0,0,0
	.stabs	"Env:T(9,4)=s112env_tf:(10,2),0,544;env_link:(9,5)=*(9,4),576,64;env_id:(9,1),640,32;env_parent_id:(9,1),672,32;env_type:(9,3),704,32;env_status:(0,4),736,32;env_runs:(4,9),768,32;env_pgdir:(9,6)=*(6,2),832,64;;",128,0,0,0
	.stabn	162,0,0,0
	.stabn	162,0,0,0
	.section	.rodata.str1.1,"aMS",@progbits,1
.LC0:
	.string	"entering test_backtrace %d\n"
.LC1:
	.string	"leaving test_backtrace %d\n"
	.text
	.p2align 4,,15
	.stabs	"test_backtrace:F(0,20)",36,0,0,test_backtrace
	.stabs	"x:P(0,1)",64,0,0,3
	.globl	test_backtrace
	.type	test_backtrace, @function
test_backtrace:
	.stabn	68,0,18,.LM0-.LFBB1
.LM0:
.LFBB1:
.LFB5:
	.cfi_startproc
	pushq	%rbx
	.cfi_def_cfa_offset 16
	.cfi_offset 3, -16
	.stabn	68,0,19,.LM1-.LFBB1
.LM1:
	movl	%edi, %esi
	.stabn	68,0,18,.LM2-.LFBB1
.LM2:
	movl	%edi, %ebx
	.stabn	68,0,19,.LM3-.LFBB1
.LM3:
	xorl	%eax, %eax
	movl	$.LC0, %edi
	call	cprintf
	.stabn	68,0,20,.LM4-.LFBB1
.LM4:
	testl	%ebx, %ebx
	jle	.L2
	.stabn	68,0,21,.LM5-.LFBB1
.LM5:
	leal	-1(%rbx), %edi
	call	test_backtrace
	.stabn	68,0,24,.LM6-.LFBB1
.LM6:
	movl	%ebx, %esi
	movl	$.LC1, %edi
	xorl	%eax, %eax
	.stabn	68,0,25,.LM7-.LFBB1
.LM7:
	popq	%rbx
	.cfi_remember_state
	.cfi_def_cfa_offset 8
	.stabn	68,0,24,.LM8-.LFBB1
.LM8:
	jmp	cprintf
	.p2align 4,,10
	.p2align 3
.L2:
	.cfi_restore_state
	.stabn	68,0,23,.LM9-.LFBB1
.LM9:
	xorl	%esi, %esi
	xorl	%edi, %edi
	xorl	%edx, %edx
	call	mon_backtrace
	.stabn	68,0,24,.LM10-.LFBB1
.LM10:
	movl	%ebx, %esi
	movl	$.LC1, %edi
	xorl	%eax, %eax
	.stabn	68,0,25,.LM11-.LFBB1
.LM11:
	popq	%rbx
	.cfi_def_cfa_offset 8
	.stabn	68,0,24,.LM12-.LFBB1
.LM12:
	jmp	cprintf
	.cfi_endproc
.LFE5:
	.size	test_backtrace, .-test_backtrace
.Lscope1:
	.section	.rodata.str1.1
.LC2:
	.string	"6828 decimal is %o octal!\n"
	.text
	.p2align 4,,15
	.stabs	"i386_init:F(0,20)",36,0,0,i386_init
	.globl	i386_init
	.type	i386_init, @function
i386_init:
	.stabn	68,0,29,.LM13-.LFBB2
.LM13:
.LFBB2:
.LFB6:
	.cfi_startproc
	.stabn	68,0,35,.LM14-.LFBB2
.LM14:
	movl	$end, %edx
	.stabn	68,0,29,.LM15-.LFBB2
.LM15:
	subq	$8, %rsp
	.cfi_def_cfa_offset 16
	.stabn	68,0,35,.LM16-.LFBB2
.LM16:
	xorl	%esi, %esi
	subq	$edata, %rdx
	movl	$edata, %edi
	call	memset
	.stabn	68,0,39,.LM17-.LFBB2
.LM17:
	call	cons_init
	.stabn	68,0,41,.LM18-.LFBB2
.LM18:
	movl	$6828, %esi
	movl	$.LC2, %edi
	xorl	%eax, %eax
	call	cprintf
	.stabn	68,0,44,.LM19-.LFBB2
.LM19:
	call	mem_init
	.stabn	68,0,47,.LM20-.LFBB2
.LM20:
	call	env_init
	.stabn	68,0,48,.LM21-.LFBB2
.LM21:
	.p2align 4,,5
	call	trap_init
.LBB2:
	.stabn	68,0,55,.LM22-.LFBB2
.LM22:
	leal	_binary_obj_user_hello_size(%rip), %esi
	movl	$_binary_obj_user_hello_start, %edi
	xorl	%edx, %edx
	call	env_create
.LBE2:
	.stabn	68,0,59,.LM23-.LFBB2
.LM23:
	movq	envs(%rip), %rdi
	call	env_run
	.cfi_endproc
.LFE6:
	.size	i386_init, .-i386_init
.Lscope2:
	.section	.rodata.str1.1
.LC3:
	.string	"kernel panic at %s:%d: "
.LC4:
	.string	"\n"
	.text
	.p2align 4,,15
	.stabs	"_panic:F(0,20)",36,0,0,_panic
	.stabs	"file:P(0,21)=*(0,2)",64,0,0,5
	.stabs	"line:P(0,1)",64,0,0,4
	.stabs	"fmt:P(0,21)",64,0,0,3
	.globl	_panic
	.type	_panic, @function
_panic:
	.stabn	68,0,75,.LM24-.LFBB3
.LM24:
.LFBB3:
.LFB7:
	.cfi_startproc
	pushq	%rbx
	.cfi_def_cfa_offset 16
	.cfi_offset 3, -16
	subq	$208, %rsp
	.cfi_def_cfa_offset 224
	testb	%al, %al
	movq	%rcx, 56(%rsp)
	movq	%r8, 64(%rsp)
	movq	%r9, 72(%rsp)
	je	.L7
	.stabn	68,0,75,.LM25-.LFBB3
.LM25:
	movaps	%xmm0, 80(%rsp)
	movaps	%xmm1, 96(%rsp)
	movaps	%xmm2, 112(%rsp)
	movaps	%xmm3, 128(%rsp)
	movaps	%xmm4, 144(%rsp)
	movaps	%xmm5, 160(%rsp)
	movaps	%xmm6, 176(%rsp)
	movaps	%xmm7, 192(%rsp)
.L7:
	.stabn	68,0,78,.LM26-.LFBB3
.LM26:
	cmpq	$0, panicstr(%rip)
	.stabn	68,0,75,.LM27-.LFBB3
.LM27:
	movq	%rdx, %rbx
	.stabn	68,0,78,.LM28-.LFBB3
.LM28:
	je	.L11
	.p2align 4,,10
	.p2align 3
.L10:
	.stabn	68,0,94,.LM29-.LFBB3
.LM29:
	xorl	%edi, %edi
	call	monitor
	jmp	.L10
.L11:
	.stabn	68,0,80,.LM30-.LFBB3
.LM30:
	movq	%rdx, panicstr(%rip)
	.stabn	68,0,83,.LM31-.LFBB3
.LM31:
#APP
# 83 "kern/init.c" 1
	cli; cld
# 0 "" 2
	.stabn	68,0,85,.LM32-.LFBB3
.LM32:
#NO_APP
	leaq	224(%rsp), %rax
	.stabn	68,0,86,.LM33-.LFBB3
.LM33:
	movl	%esi, %edx
	movq	%rdi, %rsi
	movl	$.LC3, %edi
	.stabn	68,0,85,.LM34-.LFBB3
.LM34:
	movl	$24, 8(%rsp)
	movl	$48, 12(%rsp)
	movq	%rax, 16(%rsp)
	leaq	32(%rsp), %rax
	movq	%rax, 24(%rsp)
	.stabn	68,0,86,.LM35-.LFBB3
.LM35:
	xorl	%eax, %eax
	call	cprintf
	.stabn	68,0,87,.LM36-.LFBB3
.LM36:
	leaq	8(%rsp), %rsi
	movq	%rbx, %rdi
	call	vcprintf
	.stabn	68,0,88,.LM37-.LFBB3
.LM37:
	movl	$.LC4, %edi
	xorl	%eax, %eax
	call	cprintf
	jmp	.L10
	.cfi_endproc
.LFE7:
	.size	_panic, .-_panic
	.stabs	"ap:(2,1)",128,0,0,8
	.stabn	192,0,0,.LFBB3-.LFBB3
	.stabn	224,0,0,.Lscope3-.LFBB3
.Lscope3:
	.section	.rodata.str1.1
.LC5:
	.string	"kernel warning at %s:%d: "
	.text
	.p2align 4,,15
	.stabs	"_warn:F(0,20)",36,0,0,_warn
	.stabs	"file:P(0,21)",64,0,0,5
	.stabs	"line:P(0,1)",64,0,0,4
	.stabs	"fmt:P(0,21)",64,0,0,3
	.globl	_warn
	.type	_warn, @function
_warn:
	.stabn	68,0,100,.LM38-.LFBB4
.LM38:
.LFBB4:
.LFB8:
	.cfi_startproc
	pushq	%rbx
	.cfi_def_cfa_offset 16
	.cfi_offset 3, -16
	subq	$208, %rsp
	.cfi_def_cfa_offset 224
	testb	%al, %al
	movq	%rcx, 56(%rsp)
	movq	%r8, 64(%rsp)
	movq	%r9, 72(%rsp)
	je	.L13
	.stabn	68,0,100,.LM39-.LFBB4
.LM39:
	movaps	%xmm0, 80(%rsp)
	movaps	%xmm1, 96(%rsp)
	movaps	%xmm2, 112(%rsp)
	movaps	%xmm3, 128(%rsp)
	movaps	%xmm4, 144(%rsp)
	movaps	%xmm5, 160(%rsp)
	movaps	%xmm6, 176(%rsp)
	movaps	%xmm7, 192(%rsp)
.L13:
	.stabn	68,0,103,.LM40-.LFBB4
.LM40:
	leaq	224(%rsp), %rax
	.stabn	68,0,100,.LM41-.LFBB4
.LM41:
	movq	%rdx, %rbx
	.stabn	68,0,104,.LM42-.LFBB4
.LM42:
	movl	%esi, %edx
	movq	%rdi, %rsi
	movl	$.LC5, %edi
	.stabn	68,0,103,.LM43-.LFBB4
.LM43:
	movl	$24, 8(%rsp)
	movq	%rax, 16(%rsp)
	leaq	32(%rsp), %rax
	movl	$48, 12(%rsp)
	movq	%rax, 24(%rsp)
	.stabn	68,0,104,.LM44-.LFBB4
.LM44:
	xorl	%eax, %eax
	call	cprintf
	.stabn	68,0,105,.LM45-.LFBB4
.LM45:
	leaq	8(%rsp), %rsi
	movq	%rbx, %rdi
	call	vcprintf
	.stabn	68,0,106,.LM46-.LFBB4
.LM46:
	movl	$.LC4, %edi
	xorl	%eax, %eax
	call	cprintf
	.stabn	68,0,108,.LM47-.LFBB4
.LM47:
	addq	$208, %rsp
	.cfi_def_cfa_offset 16
	popq	%rbx
	.cfi_def_cfa_offset 8
	ret
	.cfi_endproc
.LFE8:
	.size	_warn, .-_warn
	.stabs	"ap:(2,1)",128,0,0,8
	.stabn	192,0,0,.LFBB4-.LFBB4
	.stabn	224,0,0,.Lscope4-.LFBB4
.Lscope4:
	.comm	panicstr,8,8
	.stabs	"panicstr:G(0,21)",32,0,0,0
	.stabs	"",100,0,0,.Letext0
.Letext0:
	.ident	"GCC: (Ubuntu/Linaro 4.6.3-1ubuntu5) 4.6.3"
	.section	.note.GNU-stack,"",@progbits
